target datalayout = "e-m:e-p270:32:32-p271:32:32-p272:64:64-i64:64-i128:128-f80:128-n8:16:32:64-S128"
target triple = "x86_64-pc-linux-gnu"

%struct.CrxSubband = type { ptr, i64, ptr, i16, i16, i32, i32, i32, i32, i8, i32, i64, i64, i16, i16, i16, i16, i16 }
%struct.CrxPlaneComp = type { ptr, ptr, ptr, i8, i64, i32, i8, i32, i8 }
%struct.CrxImage = type { i8, i16, i16, i8, i8, i8, i8, i8, i8, i8, i8, ptr, i64, i64, [4 x ptr], ptr, ptr, %class.libraw_memmgr }
%class.libraw_memmgr = type <{ ptr, i32, [4 x i8] }>

; Function Attrs: mustprogress nounwind uwtable
define void @_Z18crxFreeSubbandDataP8CrxImageP12CrxPlaneComp(ptr noundef %0, ptr noundef %1) #6 {
  %3 = alloca ptr, align 8
  %4 = alloca ptr, align 8
  %5 = alloca i32, align 4
  store ptr %0, ptr %3, align 8, !tbaa !125
  store ptr %1, ptr %4, align 8, !tbaa !105
  %6 = load ptr, ptr %4, align 8, !tbaa !105
  %7 = getelementptr inbounds nuw %struct.CrxPlaneComp, ptr %6, i32 0, i32 0
  %8 = load ptr, ptr %7, align 8, !tbaa !127
  %9 = icmp ne ptr %8, null
  br i1 %9, label %10, label %16

10:                                               ; preds = %2
  %11 = load ptr, ptr %4, align 8, !tbaa !105
  %12 = getelementptr inbounds nuw %struct.CrxPlaneComp, ptr %11, i32 0, i32 0
  %13 = load ptr, ptr %12, align 8, !tbaa !127
  call void @free(ptr noundef %13) #19
  %14 = load ptr, ptr %4, align 8, !tbaa !105
  %15 = getelementptr inbounds nuw %struct.CrxPlaneComp, ptr %14, i32 0, i32 0
  store ptr null, ptr %15, align 8, !tbaa !127
  br label %16

16:                                               ; preds = %10, %2
  %17 = load ptr, ptr %4, align 8, !tbaa !105
  %18 = getelementptr inbounds nuw %struct.CrxPlaneComp, ptr %17, i32 0, i32 1
  %19 = load ptr, ptr %18, align 8, !tbaa !111
  %20 = icmp ne ptr %19, null
  br i1 %20, label %22, label %21

21:                                               ; preds = %16
  br label %75

22:                                               ; preds = %16
  call void @llvm.lifetime.start.p0(i64 4, ptr %5) #19
  store i32 0, ptr %5, align 4, !tbaa !20
  br label %23

23:                                               ; preds = %72, %22
  %24 = load i32, ptr %5, align 4, !tbaa !20
  %25 = load ptr, ptr %3, align 8, !tbaa !125
  %26 = getelementptr inbounds nuw %struct.CrxImage, ptr %25, i32 0, i32 5
  %27 = load i8, ptr %26, align 8, !tbaa !128
  %28 = zext i8 %27 to i32
  %29 = icmp slt i32 %24, %28
  br i1 %29, label %31, label %30

30:                                               ; preds = %23
  call void @llvm.lifetime.end.p0(i64 4, ptr %5) #19
  br label %75

31:                                               ; preds = %23
  %32 = load ptr, ptr %4, align 8, !tbaa !105
  %33 = getelementptr inbounds nuw %struct.CrxPlaneComp, ptr %32, i32 0, i32 1
  %34 = load ptr, ptr %33, align 8, !tbaa !111
  %35 = load i32, ptr %5, align 4, !tbaa !20
  %36 = sext i32 %35 to i64
  %37 = getelementptr inbounds %struct.CrxSubband, ptr %34, i64 %36
  %38 = getelementptr inbounds nuw %struct.CrxSubband, ptr %37, i32 0, i32 0
  %39 = load ptr, ptr %38, align 8, !tbaa !70
  %40 = icmp ne ptr %39, null
  br i1 %40, label %41, label %57

41:                                               ; preds = %31
  %42 = load ptr, ptr %4, align 8, !tbaa !105
  %43 = getelementptr inbounds nuw %struct.CrxPlaneComp, ptr %42, i32 0, i32 1
  %44 = load ptr, ptr %43, align 8, !tbaa !111
  %45 = load i32, ptr %5, align 4, !tbaa !20
  %46 = sext i32 %45 to i64
  %47 = getelementptr inbounds %struct.CrxSubband, ptr %44, i64 %46
  %48 = getelementptr inbounds nuw %struct.CrxSubband, ptr %47, i32 0, i32 0
  %49 = load ptr, ptr %48, align 8, !tbaa !70
  call void @free(ptr noundef %49) #19
  %50 = load ptr, ptr %4, align 8, !tbaa !105
  %51 = getelementptr inbounds nuw %struct.CrxPlaneComp, ptr %50, i32 0, i32 1
  %52 = load ptr, ptr %51, align 8, !tbaa !111
  %53 = load i32, ptr %5, align 4, !tbaa !20
  %54 = sext i32 %53 to i64
  %55 = getelementptr inbounds %struct.CrxSubband, ptr %52, i64 %54
  %56 = getelementptr inbounds nuw %struct.CrxSubband, ptr %55, i32 0, i32 0
  store ptr null, ptr %56, align 8, !tbaa !70
  br label %57

57:                                               ; preds = %41, %31
  %58 = load ptr, ptr %4, align 8, !tbaa !105
  %59 = getelementptr inbounds nuw %struct.CrxPlaneComp, ptr %58, i32 0, i32 1
  %60 = load ptr, ptr %59, align 8, !tbaa !111
  %61 = load i32, ptr %5, align 4, !tbaa !20
  %62 = sext i32 %61 to i64
  %63 = getelementptr inbounds %struct.CrxSubband, ptr %60, i64 %62
  %64 = getelementptr inbounds nuw %struct.CrxSubband, ptr %63, i32 0, i32 2
  store ptr null, ptr %64, align 8, !tbaa !77
  %65 = load ptr, ptr %4, align 8, !tbaa !105
  %66 = getelementptr inbounds nuw %struct.CrxPlaneComp, ptr %65, i32 0, i32 1
  %67 = load ptr, ptr %66, align 8, !tbaa !111
  %68 = load i32, ptr %5, align 4, !tbaa !20
  %69 = sext i32 %68 to i64
  %70 = getelementptr inbounds %struct.CrxSubband, ptr %67, i64 %69
  %71 = getelementptr inbounds nuw %struct.CrxSubband, ptr %70, i32 0, i32 10
  store i32 0, ptr %71, align 8, !tbaa !78
  br label %72

72:                                               ; preds = %57
  %73 = load i32, ptr %5, align 4, !tbaa !20
  %74 = add nsw i32 %73, 1
  store i32 %74, ptr %5, align 4, !tbaa !20
  br label %23, !llvm.loop !133

75:                                               ; preds = %21, %30
  ret void
}