; Function Attrs: mustprogress nounwind uwtable
define void @_Z18crxFreeSubbandDataP8CrxImageP12CrxPlaneComp(ptr noundef readonly captures(none) %0, ptr noundef captures(none) %1) local_unnamed_addr #7 {
  %3 = load ptr, ptr %1, align 8, !tbaa !120
  %.not = icmp eq ptr %3, null
  br i1 %.not, label %5, label %4

4:                                                ; preds = %2
  tail call void @free(ptr noundef nonnull %3) #21
  store ptr null, ptr %1, align 8, !tbaa !120
  br label %5

5:                                                ; preds = %4, %2
  %6 = getelementptr inbounds nuw i8, ptr %1, i64 8
  %7 = load ptr, ptr %6, align 8, !tbaa !106
  %.not18 = icmp eq ptr %7, null
  br i1 %.not18, label %.loopexit, label %.preheader

.preheader:                                       ; preds = %5
  %8 = getelementptr inbounds nuw i8, ptr %0, i64 8
  %9 = load i8, ptr %8, align 8, !tbaa !121
  %.not21 = icmp eq i8 %9, 0
  br i1 %.not21, label %.loopexit, label %.lr.ph

.lr.ph:                                           ; preds = %.preheader, %17
  %10 = phi i8 [ %18, %17 ], [ %9, %.preheader ]
  %11 = phi ptr [ %19, %17 ], [ %7, %.preheader ]
  %indvars.iv = phi i64 [ %indvars.iv.next, %17 ], [ 0, %.preheader ]
  %12 = getelementptr inbounds nuw %struct.CrxSubband, ptr %11, i64 %indvars.iv
  %13 = load ptr, ptr %12, align 8, !tbaa !66
  %.not19 = icmp eq ptr %13, null
  br i1 %.not19, label %17, label %14

14:                                               ; preds = %.lr.ph
  tail call void @free(ptr noundef nonnull %13) #21
  %15 = load ptr, ptr %6, align 8, !tbaa !106
  %16 = getelementptr inbounds nuw %struct.CrxSubband, ptr %15, i64 %indvars.iv
  store ptr null, ptr %16, align 8, !tbaa !66
  %.pre = load i8, ptr %8, align 8, !tbaa !121
  br label %17

17:                                               ; preds = %14, %.lr.ph
  %18 = phi i8 [ %.pre, %14 ], [ %10, %.lr.ph ]
  %19 = phi ptr [ %15, %14 ], [ %11, %.lr.ph ]
  %20 = getelementptr inbounds nuw %struct.CrxSubband, ptr %19, i64 %indvars.iv, i32 2
  store ptr null, ptr %20, align 8, !tbaa !73
  %21 = getelementptr inbounds nuw %struct.CrxSubband, ptr %19, i64 %indvars.iv, i32 10
  store i32 0, ptr %21, align 8, !tbaa !74
  %indvars.iv.next = add nuw nsw i64 %indvars.iv, 1
  %22 = zext i8 %18 to i64
  %23 = icmp samesign ult i64 %indvars.iv.next, %22
  br i1 %23, label %.lr.ph, label %.loopexit, !llvm.loop !126

.loopexit:                                        ; preds = %17, %.preheader, %5
  ret void
}